; Function Attrs: mustprogress uwtable
define internal void @_ZN12_GLOBAL__N_134cmMacProjectDirectoryListGenerator22TransformNameBeforeCmpENSt7__cxx1112basic_stringIcSt11char_traitsIcESaIcEEE(ptr dead_on_unwind noalias writable sret(%"class.std::__cxx11::basic_string") align 8 %0, ptr nocapture noundef nonnull readonly align 8 dereferenceable(64) %1, ptr noundef nonnull %2) unnamed_addr #3 align 2 {
  %4 = alloca [2 x %"struct.std::pair.423"], align 8
  %5 = getelementptr inbounds i8, ptr %1, i64 48
  call void @llvm.lifetime.start.p0(i64 48, ptr nonnull %4)
  %6 = tail call { i64, ptr } @_ZNKSt7__cxx1112basic_stringIcSt11char_traitsIcESaIcEEcvSt17basic_string_viewIcS2_EEv(ptr noundef nonnull align 8 dereferenceable(32) %2) #23, !noalias !1162
  %7 = extractvalue { i64, ptr } %6, 0
  %8 = extractvalue { i64, ptr } %6, 1
  store i64 %7, ptr %4, align 8, !alias.scope !1165, !noalias !1162
  %.sroa.2.0..sroa_idx.i.i = getelementptr inbounds i8, ptr %4, i64 8
  store ptr %8, ptr %.sroa.2.0..sroa_idx.i.i, align 8, !alias.scope !1165, !noalias !1162
  %9 = getelementptr inbounds i8, ptr %4, i64 16
  store ptr null, ptr %9, align 8, !alias.scope !1165, !noalias !1162
  %10 = getelementptr inbounds i8, ptr %4, i64 24
  %.sroa.0.0.copyload.i = load i64, ptr %5, align 8, !noalias !1162
  %.sroa.2.0..sroa_idx.i = getelementptr inbounds i8, ptr %1, i64 56
  %.sroa.2.0.copyload.i = load ptr, ptr %.sroa.2.0..sroa_idx.i, align 8, !noalias !1162
  store i64 %.sroa.0.0.copyload.i, ptr %10, align 8, !alias.scope !1168, !noalias !1162
  %.sroa.2.0..sroa_idx.i9.i = getelementptr inbounds i8, ptr %4, i64 32
  store ptr %.sroa.2.0.copyload.i, ptr %.sroa.2.0..sroa_idx.i9.i, align 8, !alias.scope !1168, !noalias !1162
  %11 = getelementptr inbounds i8, ptr %4, i64 40
  store ptr null, ptr %11, align 8, !alias.scope !1168, !noalias !1162
  call void @_Z10cmCatViewsSt16initializer_listISt4pairISt17basic_string_viewIcSt11char_traitsIcEEPNSt7__cxx1112basic_stringIcS3_SaIcEEEEE(ptr dead_on_unwind writable sret(%"class.std::__cxx11::basic_string") align 8 %0, ptr nonnull %4, i64 2)
  call void @llvm.lifetime.end.p0(i64 48, ptr nonnull %4)
  ret void
}